target datalayout = "e-m:e-p270:32:32-p271:32:32-p272:64:64-i64:64-i128:128-f80:128-n8:16:32:64-S128"
target triple = "x86_64-pc-linux-gnu"

%struct.string_list = type { ptr, i64, i64, i8, ptr }
%struct.mailmap_entry = type { ptr, ptr, %struct.string_list }
%struct.string_list_item = type { ptr, ptr }
%struct.mailmap_info = type { ptr, ptr }

; Function Attrs: nounwind uwtable
define internal ptr @lookup_prefix(ptr noundef %0, ptr noundef %1, i64 noundef %2) #0 {
  %4 = alloca ptr, align 8
  %5 = alloca ptr, align 8
  %6 = alloca ptr, align 8
  %7 = alloca i64, align 8
  %8 = alloca i32, align 4
  %9 = alloca i32, align 4
  %10 = alloca i32, align 4
  store ptr %0, ptr %5, align 8, !tbaa !4
  store ptr %1, ptr %6, align 8, !tbaa !9
  store i64 %2, ptr %7, align 8, !tbaa !39
  call void @llvm.lifetime.start.p0(i64 4, ptr %8) #7
  %11 = load ptr, ptr %5, align 8, !tbaa !4
  %12 = load ptr, ptr %6, align 8, !tbaa !9
  %13 = call i32 @string_list_find_insert_index(ptr noundef %11, ptr noundef %12, i32 noundef 1)
  store i32 %13, ptr %8, align 4, !tbaa !11
  %14 = load i32, ptr %8, align 4, !tbaa !11
  %15 = icmp slt i32 %14, 0
  br i1 %15, label %16, label %32

16:                                               ; preds = %3
  %17 = load i32, ptr %8, align 4, !tbaa !11
  %18 = sub nsw i32 -1, %17
  store i32 %18, ptr %8, align 4, !tbaa !11
  %19 = load ptr, ptr %6, align 8, !tbaa !9
  %20 = load i64, ptr %7, align 8, !tbaa !39
  %21 = getelementptr inbounds nuw i8, ptr %19, i64 %20
  %22 = load i8, ptr %21, align 1, !tbaa !17
  %23 = icmp ne i8 %22, 0
  br i1 %23, label %31, label %24

24:                                               ; preds = %16
  %25 = load ptr, ptr %5, align 8, !tbaa !4
  %26 = getelementptr inbounds nuw %struct.string_list, ptr %25, i32 0, i32 0
  %27 = load ptr, ptr %26, align 8, !tbaa !49
  %28 = load i32, ptr %8, align 4, !tbaa !11
  %29 = sext i32 %28 to i64
  %30 = getelementptr inbounds %struct.string_list_item, ptr %27, i64 %29
  store ptr %30, ptr %4, align 8
  store i32 1, ptr %9, align 4
  br label %98

31:                                               ; preds = %16
  br label %40

32:                                               ; preds = %3
  %33 = load ptr, ptr %6, align 8, !tbaa !9
  %34 = load i64, ptr %7, align 8, !tbaa !39
  %35 = getelementptr inbounds nuw i8, ptr %33, i64 %34
  %36 = load i8, ptr %35, align 1, !tbaa !17
  %37 = icmp ne i8 %36, 0
  br i1 %37, label %39, label %38

38:                                               ; preds = %32
  store ptr null, ptr %4, align 8
  store i32 1, ptr %9, align 4
  br label %98

39:                                               ; preds = %32
  br label %40

40:                                               ; preds = %39, %31
  br label %41

41:                                               ; preds = %96, %40
  %42 = load i32, ptr %8, align 4, !tbaa !11
  %43 = add nsw i32 %42, -1
  store i32 %43, ptr %8, align 4, !tbaa !11
  %44 = icmp sle i32 0, %43
  br i1 %44, label %45, label %52

45:                                               ; preds = %41
  %46 = load i32, ptr %8, align 4, !tbaa !11
  %47 = sext i32 %46 to i64
  %48 = load ptr, ptr %5, align 8, !tbaa !4
  %49 = getelementptr inbounds nuw %struct.string_list, ptr %48, i32 0, i32 1
  %50 = load i64, ptr %49, align 8, !tbaa !50
  %51 = icmp ult i64 %47, %50
  br label %52

52:                                               ; preds = %45, %41
  %53 = phi i1 [ false, %41 ], [ %51, %45 ]
  br i1 %53, label %54, label %97

54:                                               ; preds = %52
  call void @llvm.lifetime.start.p0(i64 4, ptr %10) #7
  %55 = load ptr, ptr %5, align 8, !tbaa !4
  %56 = getelementptr inbounds nuw %struct.string_list, ptr %55, i32 0, i32 0
  %57 = load ptr, ptr %56, align 8, !tbaa !49
  %58 = load i32, ptr %8, align 4, !tbaa !11
  %59 = sext i32 %58 to i64
  %60 = getelementptr inbounds %struct.string_list_item, ptr %57, i64 %59
  %61 = getelementptr inbounds nuw %struct.string_list_item, ptr %60, i32 0, i32 0
  %62 = load ptr, ptr %61, align 8, !tbaa !51
  %63 = load ptr, ptr %6, align 8, !tbaa !9
  %64 = load i64, ptr %7, align 8, !tbaa !39
  %65 = call i32 @strncasecmp(ptr noundef %62, ptr noundef %63, i64 noundef %64) #9
  store i32 %65, ptr %10, align 4, !tbaa !11
  %66 = load i32, ptr %10, align 4, !tbaa !11
  %67 = icmp slt i32 %66, 0
  br i1 %67, label %68, label %69

68:                                               ; preds = %54
  store i32 3, ptr %9, align 4
  br label %94

69:                                               ; preds = %54
  %70 = load i32, ptr %10, align 4, !tbaa !11
  %71 = icmp ne i32 %70, 0
  br i1 %71, label %92, label %72

72:                                               ; preds = %69
  %73 = load ptr, ptr %5, align 8, !tbaa !4
  %74 = getelementptr inbounds nuw %struct.string_list, ptr %73, i32 0, i32 0
  %75 = load ptr, ptr %74, align 8, !tbaa !49
  %76 = load i32, ptr %8, align 4, !tbaa !11
  %77 = sext i32 %76 to i64
  %78 = getelementptr inbounds %struct.string_list_item, ptr %75, i64 %77
  %79 = getelementptr inbounds nuw %struct.string_list_item, ptr %78, i32 0, i32 0
  %80 = load ptr, ptr %79, align 8, !tbaa !51
  %81 = load i64, ptr %7, align 8, !tbaa !39
  %82 = getelementptr inbounds nuw i8, ptr %80, i64 %81
  %83 = load i8, ptr %82, align 1, !tbaa !17
  %84 = icmp ne i8 %83, 0
  br i1 %84, label %92, label %85

85:                                               ; preds = %72
  %86 = load ptr, ptr %5, align 8, !tbaa !4
  %87 = getelementptr inbounds nuw %struct.string_list, ptr %86, i32 0, i32 0
  %88 = load ptr, ptr %87, align 8, !tbaa !49
  %89 = load i32, ptr %8, align 4, !tbaa !11
  %90 = sext i32 %89 to i64
  %91 = getelementptr inbounds %struct.string_list_item, ptr %88, i64 %90
  store ptr %91, ptr %4, align 8
  store i32 1, ptr %9, align 4
  br label %94

92:                                               ; preds = %72, %69
  br label %93

93:                                               ; preds = %92
  store i32 0, ptr %9, align 4
  br label %94

94:                                               ; preds = %93, %85, %68
  call void @llvm.lifetime.end.p0(i64 4, ptr %10) #7
  %95 = load i32, ptr %9, align 4
  switch i32 %95, label %98 [
    i32 0, label %96
    i32 3, label %97
  ]

96:                                               ; preds = %94
  br label %41, !llvm.loop !52

97:                                               ; preds = %94, %52
  store ptr null, ptr %4, align 8
  store i32 1, ptr %9, align 4
  br label %98

98:                                               ; preds = %97, %94, %38, %24
  call void @llvm.lifetime.end.p0(i64 4, ptr %8) #7
  %99 = load ptr, ptr %4, align 8
  ret ptr %99
}

; Function Attrs: nounwind uwtable
define dso_local i32 @map_user(ptr noundef %0, ptr noundef %1, ptr noundef %2, ptr noundef %3, ptr noundef %4) #0 {
  %6 = alloca i32, align 4
  %7 = alloca ptr, align 8
  %8 = alloca ptr, align 8
  %9 = alloca ptr, align 8
  %10 = alloca ptr, align 8
  %11 = alloca ptr, align 8
  %12 = alloca ptr, align 8
  %13 = alloca ptr, align 8
  %14 = alloca ptr, align 8
  %15 = alloca ptr, align 8
  %16 = alloca i32, align 4
  store ptr %0, ptr %7, align 8, !tbaa !4
  store ptr %1, ptr %8, align 8, !tbaa !35
  store ptr %2, ptr %9, align 8, !tbaa !37
  store ptr %3, ptr %10, align 8, !tbaa !35
  store ptr %4, ptr %11, align 8, !tbaa !37
  call void @llvm.lifetime.start.p0(i64 8, ptr %12) #7
  call void @llvm.lifetime.start.p0(i64 8, ptr %13) #7
  %17 = load ptr, ptr %7, align 8, !tbaa !4
  %18 = load ptr, ptr %8, align 8, !tbaa !35
  %19 = load ptr, ptr %18, align 8, !tbaa !9
  %20 = load ptr, ptr %9, align 8, !tbaa !37
  %21 = load i64, ptr %20, align 8, !tbaa !39
  %22 = call ptr @lookup_prefix(ptr noundef %17, ptr noundef %19, i64 noundef %21)
  store ptr %22, ptr %12, align 8, !tbaa !40
  %23 = load ptr, ptr %12, align 8, !tbaa !40
  %24 = icmp ne ptr %23, null
  br i1 %24, label %25, label %48

25:                                               ; preds = %5
  %26 = load ptr, ptr %12, align 8, !tbaa !40
  %27 = getelementptr inbounds nuw %struct.string_list_item, ptr %26, i32 0, i32 1
  %28 = load ptr, ptr %27, align 8, !tbaa !41
  store ptr %28, ptr %13, align 8, !tbaa !30
  %29 = load ptr, ptr %13, align 8, !tbaa !30
  %30 = getelementptr inbounds nuw %struct.mailmap_entry, ptr %29, i32 0, i32 2
  %31 = getelementptr inbounds nuw %struct.string_list, ptr %30, i32 0, i32 1
  %32 = load i64, ptr %31, align 8, !tbaa !43
  %33 = icmp ne i64 %32, 0
  br i1 %33, label %34, label %47

34:                                               ; preds = %25
  call void @llvm.lifetime.start.p0(i64 8, ptr %14) #7
  %35 = load ptr, ptr %13, align 8, !tbaa !30
  %36 = getelementptr inbounds nuw %struct.mailmap_entry, ptr %35, i32 0, i32 2
  %37 = load ptr, ptr %10, align 8, !tbaa !35
  %38 = load ptr, ptr %37, align 8, !tbaa !9
  %39 = load ptr, ptr %11, align 8, !tbaa !37
  %40 = load i64, ptr %39, align 8, !tbaa !39
  %41 = call ptr @lookup_prefix(ptr noundef %36, ptr noundef %38, i64 noundef %40)
  store ptr %41, ptr %14, align 8, !tbaa !40
  %42 = load ptr, ptr %14, align 8, !tbaa !40
  %43 = icmp ne ptr %42, null
  br i1 %43, label %44, label %46

44:                                               ; preds = %34
  %45 = load ptr, ptr %14, align 8, !tbaa !40
  store ptr %45, ptr %12, align 8, !tbaa !40
  br label %46

46:                                               ; preds = %44, %34
  call void @llvm.lifetime.end.p0(i64 8, ptr %14) #7
  br label %47

47:                                               ; preds = %46, %25
  br label %48

48:                                               ; preds = %47, %5
  %49 = load ptr, ptr %12, align 8, !tbaa !40
  %50 = icmp ne ptr %49, null
  br i1 %50, label %51, label %95

51:                                               ; preds = %48
  call void @llvm.lifetime.start.p0(i64 8, ptr %15) #7
  %52 = load ptr, ptr %12, align 8, !tbaa !40
  %53 = getelementptr inbounds nuw %struct.string_list_item, ptr %52, i32 0, i32 1
  %54 = load ptr, ptr %53, align 8, !tbaa !41
  store ptr %54, ptr %15, align 8, !tbaa !44
  %55 = load ptr, ptr %15, align 8, !tbaa !44
  %56 = getelementptr inbounds nuw %struct.mailmap_info, ptr %55, i32 0, i32 0
  %57 = load ptr, ptr %56, align 8, !tbaa !46
  %58 = icmp eq ptr %57, null
  br i1 %58, label %59, label %65

59:                                               ; preds = %51
  %60 = load ptr, ptr %15, align 8, !tbaa !44
  %61 = getelementptr inbounds nuw %struct.mailmap_info, ptr %60, i32 0, i32 1
  %62 = load ptr, ptr %61, align 8, !tbaa !48
  %63 = icmp eq ptr %62, null
  br i1 %63, label %64, label %65

64:                                               ; preds = %59
  store i32 0, ptr %6, align 4
  store i32 1, ptr %16, align 4
  br label %94

65:                                               ; preds = %59, %51
  %66 = load ptr, ptr %15, align 8, !tbaa !44
  %67 = getelementptr inbounds nuw %struct.mailmap_info, ptr %66, i32 0, i32 1
  %68 = load ptr, ptr %67, align 8, !tbaa !48
  %69 = icmp ne ptr %68, null
  br i1 %69, label %70, label %79

70:                                               ; preds = %65
  %71 = load ptr, ptr %15, align 8, !tbaa !44
  %72 = getelementptr inbounds nuw %struct.mailmap_info, ptr %71, i32 0, i32 1
  %73 = load ptr, ptr %72, align 8, !tbaa !48
  %74 = load ptr, ptr %8, align 8, !tbaa !35
  store ptr %73, ptr %74, align 8, !tbaa !9
  %75 = load ptr, ptr %8, align 8, !tbaa !35
  %76 = load ptr, ptr %75, align 8, !tbaa !9
  %77 = call i64 @strlen(ptr noundef %76) #9
  %78 = load ptr, ptr %9, align 8, !tbaa !37
  store i64 %77, ptr %78, align 8, !tbaa !39
  br label %79

79:                                               ; preds = %70, %65
  %80 = load ptr, ptr %15, align 8, !tbaa !44
  %81 = getelementptr inbounds nuw %struct.mailmap_info, ptr %80, i32 0, i32 0
  %82 = load ptr, ptr %81, align 8, !tbaa !46
  %83 = icmp ne ptr %82, null
  br i1 %83, label %84, label %93

84:                                               ; preds = %79
  %85 = load ptr, ptr %15, align 8, !tbaa !44
  %86 = getelementptr inbounds nuw %struct.mailmap_info, ptr %85, i32 0, i32 0
  %87 = load ptr, ptr %86, align 8, !tbaa !46
  %88 = load ptr, ptr %10, align 8, !tbaa !35
  store ptr %87, ptr %88, align 8, !tbaa !9
  %89 = load ptr, ptr %10, align 8, !tbaa !35
  %90 = load ptr, ptr %89, align 8, !tbaa !9
  %91 = call i64 @strlen(ptr noundef %90) #9
  %92 = load ptr, ptr %11, align 8, !tbaa !37
  store i64 %91, ptr %92, align 8, !tbaa !39
  br label %93

93:                                               ; preds = %84, %79
  store i32 1, ptr %6, align 4
  store i32 1, ptr %16, align 4
  br label %94

94:                                               ; preds = %93, %64
  call void @llvm.lifetime.end.p0(i64 8, ptr %15) #7
  br label %96

95:                                               ; preds = %48
  store i32 0, ptr %6, align 4
  store i32 1, ptr %16, align 4
  br label %96

96:                                               ; preds = %95, %94
  call void @llvm.lifetime.end.p0(i64 8, ptr %13) #7
  call void @llvm.lifetime.end.p0(i64 8, ptr %12) #7
  %97 = load i32, ptr %6, align 4
  ret i32 %97
}