; Function Attrs: nounwind uwtable
define dso_local range(i32 0, 2) i32 @map_user(ptr noundef %0, ptr noundef captures(none) %1, ptr noundef captures(none) %2, ptr noundef captures(none) %3, ptr noundef captures(none) %4) local_unnamed_addr #0 {
  %6 = load ptr, ptr %1, align 8, !tbaa !31
  %7 = load i64, ptr %2, align 8, !tbaa !36
  %8 = tail call i32 @string_list_find_insert_index(ptr noundef %0, ptr noundef %6, i32 noundef 1) #11
  %9 = icmp slt i32 %8, 0
  br i1 %9, label %10, label %14

10:                                               ; preds = %5
  %11 = xor i32 %8, -1
  %12 = getelementptr inbounds nuw i8, ptr %6, i64 %7
  %13 = load i8, ptr %12, align 1, !tbaa !10
  %.not33.i = icmp eq i8 %13, 0
  br i1 %.not33.i, label %lookup_prefix.exit, label %17

14:                                               ; preds = %5
  %15 = getelementptr inbounds nuw i8, ptr %6, i64 %7
  %16 = load i8, ptr %15, align 1, !tbaa !10
  %.not.i = icmp eq i8 %16, 0
  br i1 %.not.i, label %.thread, label %17

17:                                               ; preds = %14, %10
  %.026.i = phi i32 [ %11, %10 ], [ %8, %14 ]
  %.not48.i = icmp eq i32 %.026.i, 0
  br i1 %.not48.i, label %.thread, label %.lr.ph.i

.lr.ph.i:                                         ; preds = %17
  %18 = getelementptr inbounds nuw i8, ptr %0, i64 8
  %19 = load i64, ptr %18, align 8, !tbaa !37
  %20 = zext nneg i32 %.026.i to i64
  %21 = add nsw i64 %20, -1
  %.first_iter = icmp ult i64 %21, %19
  br label %22

22:                                               ; preds = %33, %.lr.ph.i
  %indvars.iv.i = phi i64 [ %20, %.lr.ph.i ], [ %indvars.iv.next.i, %33 ]
  %indvars.iv.next.i = add nsw i64 %indvars.iv.i, -1
  br i1 %.first_iter, label %23, label %.thread

23:                                               ; preds = %22
  %24 = load ptr, ptr %0, align 8, !tbaa !38
  %25 = getelementptr inbounds nuw %struct.string_list_item, ptr %24, i64 %indvars.iv.next.i
  %26 = load ptr, ptr %25, align 8, !tbaa !39
  %27 = tail call i32 @strncasecmp(ptr noundef %26, ptr noundef %6, i64 noundef %7) #13
  %28 = icmp slt i32 %27, 0
  br i1 %28, label %.thread, label %29

29:                                               ; preds = %23
  %.not34.i = icmp eq i32 %27, 0
  br i1 %.not34.i, label %30, label %33

30:                                               ; preds = %29
  %31 = getelementptr inbounds nuw i8, ptr %26, i64 %7
  %32 = load i8, ptr %31, align 1, !tbaa !10
  %.not35.i = icmp eq i8 %32, 0
  br i1 %.not35.i, label %lookup_prefix.exit.thread50, label %33

33:                                               ; preds = %30, %29
  %34 = icmp samesign ugt i64 %indvars.iv.i, 1
  br i1 %34, label %22, label %.thread

lookup_prefix.exit:                               ; preds = %10
  %35 = load ptr, ptr %0, align 8, !tbaa !38
  %36 = zext nneg i32 %11 to i64
  %37 = getelementptr inbounds nuw %struct.string_list_item, ptr %35, i64 %36
  %.not = icmp eq ptr %35, null
  br i1 %.not, label %.thread, label %lookup_prefix.exit.thread50

lookup_prefix.exit.thread50:                      ; preds = %30, %lookup_prefix.exit
  %.0.i53 = phi ptr [ %37, %lookup_prefix.exit ], [ %25, %30 ]
  %38 = getelementptr inbounds nuw i8, ptr %.0.i53, i64 8
  %39 = load ptr, ptr %38, align 8, !tbaa !13
  %40 = getelementptr inbounds nuw i8, ptr %39, i64 24
  %41 = load i64, ptr %40, align 8, !tbaa !40
  %.not32 = icmp eq i64 %41, 0
  br i1 %.not32, label %.thread56, label %42

42:                                               ; preds = %lookup_prefix.exit.thread50
  %43 = getelementptr inbounds nuw i8, ptr %39, i64 16
  %44 = load ptr, ptr %3, align 8, !tbaa !31
  %45 = load i64, ptr %4, align 8, !tbaa !36
  %46 = tail call i32 @string_list_find_insert_index(ptr noundef nonnull %43, ptr noundef %44, i32 noundef 1) #11
  %47 = icmp slt i32 %46, 0
  br i1 %47, label %48, label %56

48:                                               ; preds = %42
  %49 = xor i32 %46, -1
  %50 = getelementptr inbounds nuw i8, ptr %44, i64 %45
  %51 = load i8, ptr %50, align 1, !tbaa !10
  %.not33.i46 = icmp eq i8 %51, 0
  br i1 %.not33.i46, label %52, label %59

52:                                               ; preds = %48
  %53 = load ptr, ptr %43, align 8, !tbaa !38
  %54 = zext nneg i32 %49 to i64
  %55 = getelementptr inbounds nuw %struct.string_list_item, ptr %53, i64 %54
  br label %.loopexit

56:                                               ; preds = %42
  %57 = getelementptr inbounds nuw i8, ptr %44, i64 %45
  %58 = load i8, ptr %57, align 1, !tbaa !10
  %.not.i37 = icmp eq i8 %58, 0
  br i1 %.not.i37, label %.loopexit, label %59

59:                                               ; preds = %56, %48
  %.026.i38 = phi i32 [ %49, %48 ], [ %46, %56 ]
  %.not48.i39 = icmp eq i32 %.026.i38, 0
  br i1 %.not48.i39, label %.loopexit, label %.lr.ph.i40

.lr.ph.i40:                                       ; preds = %59
  %60 = load i64, ptr %40, align 8, !tbaa !37
  %61 = zext nneg i32 %.026.i38 to i64
  %62 = add nsw i64 %61, -1
  %.first_iter60 = icmp ult i64 %62, %60
  br label %63

63:                                               ; preds = %74, %.lr.ph.i40
  %indvars.iv.i41 = phi i64 [ %61, %.lr.ph.i40 ], [ %indvars.iv.next.i42, %74 ]
  %indvars.iv.next.i42 = add nsw i64 %indvars.iv.i41, -1
  br i1 %.first_iter60, label %64, label %.loopexit

64:                                               ; preds = %63
  %65 = load ptr, ptr %43, align 8, !tbaa !38
  %66 = getelementptr inbounds nuw %struct.string_list_item, ptr %65, i64 %indvars.iv.next.i42
  %67 = load ptr, ptr %66, align 8, !tbaa !39
  %68 = tail call i32 @strncasecmp(ptr noundef %67, ptr noundef %44, i64 noundef %45) #13
  %69 = icmp slt i32 %68, 0
  br i1 %69, label %.loopexit, label %70

70:                                               ; preds = %64
  %.not34.i44 = icmp eq i32 %68, 0
  br i1 %.not34.i44, label %71, label %74

71:                                               ; preds = %70
  %72 = getelementptr inbounds nuw i8, ptr %67, i64 %45
  %73 = load i8, ptr %72, align 1, !tbaa !10
  %.not35.i45 = icmp eq i8 %73, 0
  br i1 %.not35.i45, label %.loopexit, label %74

74:                                               ; preds = %71, %70
  %75 = icmp samesign ugt i64 %indvars.iv.i41, 1
  br i1 %75, label %63, label %.loopexit

.loopexit:                                        ; preds = %74, %71, %64, %63, %59, %56, %52
  %.0.i43 = phi ptr [ %55, %52 ], [ null, %56 ], [ null, %59 ], [ %66, %71 ], [ null, %64 ], [ null, %63 ], [ null, %74 ]
  %.not33 = icmp eq ptr %.0.i43, null
  %spec.select = select i1 %.not33, ptr %.0.i53, ptr %.0.i43
  %.not34 = icmp eq ptr %spec.select, null
  br i1 %.not34, label %.thread, label %.loopexit..thread56_crit_edge

.loopexit..thread56_crit_edge:                    ; preds = %.loopexit
  %.phi.trans.insert = getelementptr inbounds nuw i8, ptr %spec.select, i64 8
  %.pre = load ptr, ptr %.phi.trans.insert, align 8, !tbaa !13
  br label %.thread56

.thread56:                                        ; preds = %.loopexit..thread56_crit_edge, %lookup_prefix.exit.thread50
  %76 = phi ptr [ %.pre, %.loopexit..thread56_crit_edge ], [ %39, %lookup_prefix.exit.thread50 ]
  %77 = load ptr, ptr %76, align 8, !tbaa !24
  %78 = icmp eq ptr %77, null
  %79 = getelementptr inbounds nuw i8, ptr %76, i64 8
  %80 = load ptr, ptr %79, align 8, !tbaa !26
  %81 = icmp eq ptr %80, null
  br i1 %78, label %82, label %83

82:                                               ; preds = %.thread56
  br i1 %81, label %.thread, label %.thread64

83:                                               ; preds = %.thread56
  br i1 %81, label %.thread66, label %.thread64

.thread64:                                        ; preds = %82, %83
  store ptr %80, ptr %1, align 8, !tbaa !31
  %84 = tail call i64 @strlen(ptr noundef nonnull dereferenceable(1) %80) #13
  store i64 %84, ptr %2, align 8, !tbaa !36
  %.pre63 = load ptr, ptr %76, align 8, !tbaa !24
  %.not36 = icmp eq ptr %.pre63, null
  br i1 %.not36, label %.thread, label %.thread66

.thread66:                                        ; preds = %83, %.thread64
  %85 = phi ptr [ %.pre63, %.thread64 ], [ %77, %83 ]
  store ptr %85, ptr %3, align 8, !tbaa !31
  %86 = tail call i64 @strlen(ptr noundef nonnull dereferenceable(1) %85) #13
  store i64 %86, ptr %4, align 8, !tbaa !36
  br label %.thread

.thread:                                          ; preds = %23, %22, %33, %17, %14, %lookup_prefix.exit, %.loopexit, %82, %.thread66, %.thread64
  %.1 = phi i32 [ 0, %82 ], [ 1, %.thread66 ], [ 1, %.thread64 ], [ 0, %.loopexit ], [ 0, %lookup_prefix.exit ], [ 0, %14 ], [ 0, %17 ], [ 0, %33 ], [ 0, %22 ], [ 0, %23 ]
  ret i32 %.1
}